target datalayout = "e-m:e-p270:32:32-p271:32:32-p272:64:64-i64:64-i128:128-f80:128-n8:16:32:64-S128"
target triple = "x86_64-pc-linux-gnu"

%struct.anon = type { i32, [0 x i8] }
%struct.ArrayType = type { i32, i32, i32, i32 }

; Function Attrs: nounwind uwtable
define dso_local ptr @construct_empty_array(i32 noundef %0) #0 {
  %2 = alloca i32, align 4
  %3 = alloca ptr, align 8
  store i32 %0, ptr %2, align 4
  call void @llvm.lifetime.start.p0(i64 8, ptr %3) #11
  %4 = call ptr @palloc0(i64 noundef 16)
  store ptr %4, ptr %3, align 8
  %5 = load ptr, ptr %3, align 8
  %6 = getelementptr inbounds nuw %struct.anon, ptr %5, i32 0, i32 0
  store i32 64, ptr %6, align 4
  %7 = load ptr, ptr %3, align 8
  %8 = getelementptr inbounds nuw %struct.ArrayType, ptr %7, i32 0, i32 1
  store i32 0, ptr %8, align 4
  %9 = load ptr, ptr %3, align 8
  %10 = getelementptr inbounds nuw %struct.ArrayType, ptr %9, i32 0, i32 2
  store i32 0, ptr %10, align 4
  %11 = load i32, ptr %2, align 4
  %12 = load ptr, ptr %3, align 8
  %13 = getelementptr inbounds nuw %struct.ArrayType, ptr %12, i32 0, i32 3
  store i32 %11, ptr %13, align 4
  %14 = load ptr, ptr %3, align 8
  call void @llvm.lifetime.end.p0(i64 8, ptr %3) #11
  ret ptr %14
}