; Function Attrs: nounwind uwtable
define dso_local noundef ptr @construct_empty_array(i32 noundef %0) local_unnamed_addr #0 {
  %2 = tail call ptr @palloc0(i64 noundef 16) #18
  store i32 64, ptr %2, align 4
  %3 = getelementptr inbounds nuw i8, ptr %2, i64 4
  store i32 0, ptr %3, align 4
  %4 = getelementptr inbounds nuw i8, ptr %2, i64 8
  store i32 0, ptr %4, align 4
  %5 = getelementptr inbounds nuw i8, ptr %2, i64 12
  store i32 %0, ptr %5, align 4
  ret ptr %2
}